target datalayout = "e-m:e-p270:32:32-p271:32:32-p272:64:64-i64:64-i128:128-f80:128-n8:16:32:64-S128"
target triple = "x86_64-pc-linux-gnu"

%struct.PlatformTarget = type { ptr, i32, ptr, ptr, i32, i32, i32, i32, i32, i32, i32, [7 x %struct.AlignData], [7 x %struct.AlignData], [7 x %struct.AlignData], i32, i16, %union.anon, i8, i8, i8, i8, i8, i8, i8, i8, i8, i8, %struct.AlignData, i32, i32, i32, i32, i32, i32, i32, i32, i32, i32, i32, i32, i32, i32, i32, i32, ptr }
%union.anon = type { %struct.anon.0 }
%struct.anon.0 = type { %struct.X86Features, i32, i32 }
%struct.X86Features = type { [2 x i64], ptr }
%struct.AlignData = type { i32, i32 }
%struct.BuildTarget = type { i32, ptr, ptr, ptr, ptr, ptr, ptr, ptr, ptr, ptr, ptr, ptr, ptr, ptr, ptr, ptr, ptr, ptr, ptr, i8, i8, i8, i8, i8, i8, i8, i8, i8, i8, i8, i8, i8, i8, i8, i8, i8, i8, i8, i8, i32, i32, i32, i32, i32, i32, i32, i32, i32, i32, i32, i32, i32, i32, i32, i32, i32, i32, ptr, ptr, ptr, ptr, ptr, ptr, ptr, ptr, ptr, ptr, %struct.anon.9, %struct.anon.10, %struct.anon.11, %struct.anon.12 }
%struct.anon.9 = type { i16, i32, i32, i32 }
%struct.anon.10 = type { ptr, ptr, ptr, ptr }
%struct.anon.11 = type { ptr, ptr, i32, i8 }
%struct.anon.12 = type { ptr, ptr }
%struct.VHeader_ = type { i32, i32, [0 x i8] }

@platform_target = external global %struct.PlatformTarget, align 8
@.str = private unnamed_addr constant [36 x i8] c"FATAL ERROR %s -> in %s @ in %s:%d \00", align 1
@.str.1 = private unnamed_addr constant [22 x i8] c"Should be unreachable\00", align 1
@.str.2 = private unnamed_addr constant [107 x i8] c"generated/home/dtcxzyw/WorkSpace/Projects/compilers/llvm-opt-benchmark/bench/c3c/c3c/src/compiler/linker.c\00", align 1
@active_target = external global %struct.BuildTarget, align 8
@debug_log = external global i8, align 1
@.str.3 = private unnamed_addr constant [10 x i8] c"-- INFO: \00", align 1
@.str.5 = private unnamed_addr constant [2 x i8] c"\0A\00", align 1
@.str.24 = private unnamed_addr constant [23 x i8] c"Using linker directly.\00", align 1
@.str.27 = private unnamed_addr constant [18 x i8] c"Linking complete.\00", align 1
@.str.138 = private unnamed_addr constant [1 x i8] zeroinitializer, align 1
@.str.139 = private unnamed_addr constant [2 x i8] c" \00", align 1
@.str.140 = private unnamed_addr constant [27 x i8] c"Linker arguments: %s to %d\00", align 1
@__func__.link_exe = private unnamed_addr constant [9 x i8] c"link_exe\00", align 1
@.str.141 = private unnamed_addr constant [35 x i8] c"Failed to create an executable: %s\00", align 1

; Function Attrs: nounwind uwtable
define internal zeroext i1 @link_exe(ptr noundef %0, ptr noundef %1, i32 noundef %2) #0 {
  %4 = alloca i32, align 4
  %5 = alloca ptr, align 8
  %6 = alloca ptr, align 8
  %7 = alloca i32, align 4
  %8 = alloca ptr, align 8
  %9 = alloca ptr, align 8
  %10 = alloca i32, align 4
  %11 = alloca ptr, align 8
  %12 = alloca ptr, align 8
  %13 = alloca i32, align 4
  %14 = alloca ptr, align 8
  %15 = alloca ptr, align 8
  %16 = alloca i32, align 4
  %17 = alloca ptr, align 8
  %18 = alloca ptr, align 8
  %19 = alloca ptr, align 8
  %20 = alloca ptr, align 8
  %21 = alloca i32, align 4
  %22 = alloca ptr, align 8
  %23 = alloca i32, align 4
  %24 = alloca ptr, align 8
  %25 = alloca i8, align 1
  %26 = alloca ptr, align 8
  %27 = alloca i32, align 4
  %28 = alloca i32, align 4
  store ptr %0, ptr %19, align 8
  store ptr %1, ptr %20, align 8
  store i32 %2, ptr %21, align 4
  br label %29

29:                                               ; preds = %3
  %30 = load i8, ptr @debug_log, align 1
  %31 = trunc i8 %30 to i1
  br i1 %31, label %33, label %32

32:                                               ; preds = %29
  br label %37

33:                                               ; preds = %29
  %34 = call i32 (ptr, ...) @printf(ptr noundef @.str.3)
  %35 = call i32 (ptr, ...) @printf(ptr noundef @.str.24)
  %36 = call i32 (ptr, ...) @printf(ptr noundef @.str.5)
  br label %37

37:                                               ; preds = %33, %32
  store ptr null, ptr %22, align 8
  %38 = call i32 @linker_find_linker_type()
  store i32 %38, ptr %23, align 4
  %39 = load ptr, ptr %20, align 8
  %40 = load i32, ptr %21, align 4
  %41 = load ptr, ptr %19, align 8
  %42 = load i32, ptr %23, align 4
  %43 = call zeroext i1 @linker_setup(ptr noundef %22, ptr noundef %39, i32 noundef %40, ptr noundef %41, i32 noundef %42)
  store ptr null, ptr %24, align 8
  store ptr @.str.138, ptr %26, align 8
  store i32 0, ptr %27, align 4
  %44 = load ptr, ptr %22, align 8
  store ptr %44, ptr %5, align 8
  %45 = load ptr, ptr %5, align 8
  %46 = icmp ne ptr %45, null
  br i1 %46, label %48, label %47

47:                                               ; preds = %37
  store i32 0, ptr %4, align 4
  br label %53

48:                                               ; preds = %37
  %49 = load ptr, ptr %5, align 8
  store ptr %49, ptr %6, align 8
  %50 = load ptr, ptr %6, align 8
  %51 = getelementptr inbounds %struct.VHeader_, ptr %50, i64 -1
  %52 = load i32, ptr %51, align 4
  store i32 %52, ptr %4, align 4
  br label %53

53:                                               ; preds = %48, %47
  %54 = load i32, ptr %4, align 4
  store i32 %54, ptr %28, align 4
  br label %55

55:                                               ; preds = %69, %53
  %56 = load i32, ptr %27, align 4
  %57 = load i32, ptr %28, align 4
  %58 = icmp ult i32 %56, %57
  br i1 %58, label %59, label %72

59:                                               ; preds = %55
  %60 = load ptr, ptr %26, align 8
  %61 = call ptr @str_cat(ptr noundef %60, ptr noundef @.str.139)
  store ptr %61, ptr %26, align 8
  %62 = load ptr, ptr %26, align 8
  %63 = load ptr, ptr %22, align 8
  %64 = load i32, ptr %27, align 4
  %65 = zext i32 %64 to i64
  %66 = getelementptr inbounds ptr, ptr %63, i64 %65
  %67 = load ptr, ptr %66, align 8
  %68 = call ptr @str_cat(ptr noundef %62, ptr noundef %67)
  store ptr %68, ptr %26, align 8
  br label %69

69:                                               ; preds = %59
  %70 = load i32, ptr %27, align 4
  %71 = add i32 %70, 1
  store i32 %71, ptr %27, align 4
  br label %55, !llvm.loop !15

72:                                               ; preds = %55
  br label %73

73:                                               ; preds = %72
  %74 = load i8, ptr @debug_log, align 1
  %75 = trunc i8 %74 to i1
  br i1 %75, label %77, label %76

76:                                               ; preds = %73
  br label %83

77:                                               ; preds = %73
  %78 = call i32 (ptr, ...) @printf(ptr noundef @.str.3)
  %79 = load ptr, ptr %26, align 8
  %80 = load i32, ptr getelementptr inbounds (%struct.PlatformTarget, ptr @platform_target, i32 0, i32 8), align 8
  %81 = call i32 (ptr, ...) @printf(ptr noundef @.str.140, ptr noundef %79, i32 noundef %80)
  %82 = call i32 (ptr, ...) @printf(ptr noundef @.str.5)
  br label %83

83:                                               ; preds = %77, %76
  %84 = load i8, ptr getelementptr inbounds (%struct.BuildTarget, ptr @active_target, i32 0, i32 37), align 2
  %85 = trunc i8 %84 to i1
  br i1 %85, label %86, label %89

86:                                               ; preds = %83
  %87 = load ptr, ptr %26, align 8
  %88 = call i32 @puts(ptr noundef %87)
  br label %89

89:                                               ; preds = %86, %83
  %90 = load i32, ptr getelementptr inbounds (%struct.PlatformTarget, ptr @platform_target, i32 0, i32 8), align 8
  switch i32 %90, label %151 [
    i32 1, label %91
    i32 3, label %106
    i32 4, label %121
    i32 5, label %136
  ]

91:                                               ; preds = %89
  %92 = load ptr, ptr %22, align 8
  %93 = load ptr, ptr %22, align 8
  store ptr %93, ptr %8, align 8
  %94 = load ptr, ptr %8, align 8
  %95 = icmp ne ptr %94, null
  br i1 %95, label %97, label %96

96:                                               ; preds = %91
  store i32 0, ptr %7, align 4
  br label %102

97:                                               ; preds = %91
  %98 = load ptr, ptr %8, align 8
  store ptr %98, ptr %9, align 8
  %99 = load ptr, ptr %9, align 8
  %100 = getelementptr inbounds %struct.VHeader_, ptr %99, i64 -1
  %101 = load i32, ptr %100, align 4
  store i32 %101, ptr %7, align 4
  br label %102

102:                                              ; preds = %97, %96
  %103 = load i32, ptr %7, align 4
  %104 = call zeroext i1 @llvm_link_coff(ptr noundef %92, i32 noundef %103, ptr noundef %24)
  %105 = zext i1 %104 to i8
  store i8 %105, ptr %25, align 1
  br label %154

106:                                              ; preds = %89
  %107 = load ptr, ptr %22, align 8
  %108 = load ptr, ptr %22, align 8
  store ptr %108, ptr %11, align 8
  %109 = load ptr, ptr %11, align 8
  %110 = icmp ne ptr %109, null
  br i1 %110, label %112, label %111

111:                                              ; preds = %106
  store i32 0, ptr %10, align 4
  br label %117

112:                                              ; preds = %106
  %113 = load ptr, ptr %11, align 8
  store ptr %113, ptr %12, align 8
  %114 = load ptr, ptr %12, align 8
  %115 = getelementptr inbounds %struct.VHeader_, ptr %114, i64 -1
  %116 = load i32, ptr %115, align 4
  store i32 %116, ptr %10, align 4
  br label %117

117:                                              ; preds = %112, %111
  %118 = load i32, ptr %10, align 4
  %119 = call zeroext i1 @llvm_link_elf(ptr noundef %107, i32 noundef %118, ptr noundef %24)
  %120 = zext i1 %119 to i8
  store i8 %120, ptr %25, align 1
  br label %154

121:                                              ; preds = %89
  %122 = load ptr, ptr %22, align 8
  %123 = load ptr, ptr %22, align 8
  store ptr %123, ptr %14, align 8
  %124 = load ptr, ptr %14, align 8
  %125 = icmp ne ptr %124, null
  br i1 %125, label %127, label %126

126:                                              ; preds = %121
  store i32 0, ptr %13, align 4
  br label %132

127:                                              ; preds = %121
  %128 = load ptr, ptr %14, align 8
  store ptr %128, ptr %15, align 8
  %129 = load ptr, ptr %15, align 8
  %130 = getelementptr inbounds %struct.VHeader_, ptr %129, i64 -1
  %131 = load i32, ptr %130, align 4
  store i32 %131, ptr %13, align 4
  br label %132

132:                                              ; preds = %127, %126
  %133 = load i32, ptr %13, align 4
  %134 = call zeroext i1 @llvm_link_macho(ptr noundef %122, i32 noundef %133, ptr noundef %24)
  %135 = zext i1 %134 to i8
  store i8 %135, ptr %25, align 1
  br label %154

136:                                              ; preds = %89
  %137 = load ptr, ptr %22, align 8
  %138 = load ptr, ptr %22, align 8
  store ptr %138, ptr %17, align 8
  %139 = load ptr, ptr %17, align 8
  %140 = icmp ne ptr %139, null
  br i1 %140, label %142, label %141

141:                                              ; preds = %136
  store i32 0, ptr %16, align 4
  br label %147

142:                                              ; preds = %136
  %143 = load ptr, ptr %17, align 8
  store ptr %143, ptr %18, align 8
  %144 = load ptr, ptr %18, align 8
  %145 = getelementptr inbounds %struct.VHeader_, ptr %144, i64 -1
  %146 = load i32, ptr %145, align 4
  store i32 %146, ptr %16, align 4
  br label %147

147:                                              ; preds = %142, %141
  %148 = load i32, ptr %16, align 4
  %149 = call zeroext i1 @llvm_link_wasm(ptr noundef %137, i32 noundef %148, ptr noundef %24)
  %150 = zext i1 %149 to i8
  store i8 %150, ptr %25, align 1
  br label %154

151:                                              ; preds = %89
  br label %152

152:                                              ; preds = %151
  call void (ptr, ...) @error_exit(ptr noundef @.str, ptr noundef @.str.1, ptr noundef @__func__.link_exe, ptr noundef @.str.2, i32 noundef 651) #6
  unreachable

153:                                              ; No predecessors!
  br label %154

154:                                              ; preds = %153, %147, %132, %117, %102
  %155 = load i8, ptr %25, align 1
  %156 = trunc i8 %155 to i1
  br i1 %156, label %159, label %157

157:                                              ; preds = %154
  %158 = load ptr, ptr %24, align 8
  call void (ptr, ...) @error_exit(ptr noundef @.str.141, ptr noundef %158) #6
  unreachable

159:                                              ; preds = %154
  br label %160

160:                                              ; preds = %159
  %161 = load i8, ptr @debug_log, align 1
  %162 = trunc i8 %161 to i1
  br i1 %162, label %164, label %163

163:                                              ; preds = %160
  br label %168

164:                                              ; preds = %160
  %165 = call i32 (ptr, ...) @printf(ptr noundef @.str.3)
  %166 = call i32 (ptr, ...) @printf(ptr noundef @.str.27)
  %167 = call i32 (ptr, ...) @printf(ptr noundef @.str.5)
  br label %168

168:                                              ; preds = %164, %163
  ret i1 true
}

; Function Attrs: nounwind uwtable
define dso_local zeroext i1 @linker(ptr noundef %0, ptr noundef %1, i32 noundef %2) #0 {
  %4 = alloca ptr, align 8
  %5 = alloca ptr, align 8
  %6 = alloca i32, align 4
  store ptr %0, ptr %4, align 8
  store ptr %1, ptr %5, align 8
  store i32 %2, ptr %6, align 4
  %7 = load ptr, ptr %4, align 8
  %8 = load ptr, ptr %5, align 8
  %9 = load i32, ptr %6, align 4
  %10 = call zeroext i1 @link_exe(ptr noundef %7, ptr noundef %8, i32 noundef %9)
  ret i1 %10
}