; Function Attrs: nounwind uwtable
define dso_local noundef zeroext i1 @linker(ptr noundef %0, ptr nocapture noundef readonly %1, i32 noundef %2) local_unnamed_addr #0 {
  %4 = alloca ptr, align 8
  %5 = alloca ptr, align 8
  call void @llvm.lifetime.start.p0(i64 8, ptr nonnull %4)
  call void @llvm.lifetime.start.p0(i64 8, ptr nonnull %5)
  %6 = load i8, ptr @debug_log, align 1
  %7 = trunc i8 %6 to i1
  br i1 %7, label %8, label %11

8:                                                ; preds = %3
  %9 = tail call i32 (ptr, ...) @printf(ptr noundef nonnull dereferenceable(1) @.str.3)
  %10 = tail call i32 (ptr, ...) @printf(ptr noundef nonnull dereferenceable(1) @.str.24)
  %putchar.i = tail call i32 @putchar(i32 10)
  br label %11

11:                                               ; preds = %8, %3
  store ptr null, ptr %4, align 8
  %12 = tail call i32 @linker_find_linker_type(), !range !15
  call fastcc void @linker_setup(ptr noundef nonnull %4, ptr noundef %1, i32 noundef %2, ptr noundef %0, i32 noundef %12)
  store ptr null, ptr %5, align 8
  %13 = load ptr, ptr %4, align 8
  %.not.i = icmp eq ptr %13, null
  br i1 %.not.i, label %._crit_edge.i, label %14

14:                                               ; preds = %11
  %15 = getelementptr inbounds i8, ptr %13, i64 -8
  %16 = load i32, ptr %15, align 4
  %.not52.i = icmp eq i32 %16, 0
  br i1 %.not52.i, label %._crit_edge.i, label %.lr.ph.preheader.i

.lr.ph.preheader.i:                               ; preds = %14
  %wide.trip.count.i = zext i32 %16 to i64
  br label %.lr.ph.i

.lr.ph.i:                                         ; preds = %.lr.ph.i, %.lr.ph.preheader.i
  %indvars.iv.i = phi i64 [ 0, %.lr.ph.preheader.i ], [ %indvars.iv.next.i, %.lr.ph.i ]
  %.03350.i = phi ptr [ @.str.138, %.lr.ph.preheader.i ], [ %21, %.lr.ph.i ]
  %17 = call ptr @str_cat(ptr noundef %.03350.i, ptr noundef nonnull @.str.139) #11
  %18 = load ptr, ptr %4, align 8
  %19 = getelementptr inbounds ptr, ptr %18, i64 %indvars.iv.i
  %20 = load ptr, ptr %19, align 8
  %21 = call ptr @str_cat(ptr noundef %17, ptr noundef %20) #11
  %indvars.iv.next.i = add nuw nsw i64 %indvars.iv.i, 1
  %exitcond.not.i = icmp eq i64 %indvars.iv.next.i, %wide.trip.count.i
  br i1 %exitcond.not.i, label %._crit_edge.i, label %.lr.ph.i, !llvm.loop !16

._crit_edge.i:                                    ; preds = %.lr.ph.i, %14, %11
  %.033.lcssa.i = phi ptr [ @.str.138, %14 ], [ @.str.138, %11 ], [ %21, %.lr.ph.i ]
  %22 = load i8, ptr @debug_log, align 1
  %23 = trunc i8 %22 to i1
  br i1 %23, label %24, label %28

24:                                               ; preds = %._crit_edge.i
  %25 = call i32 (ptr, ...) @printf(ptr noundef nonnull dereferenceable(1) @.str.3)
  %26 = load i32, ptr getelementptr inbounds (%struct.PlatformTarget, ptr @platform_target, i64 0, i32 8), align 8
  %27 = call i32 (ptr, ...) @printf(ptr noundef nonnull dereferenceable(1) @.str.140, ptr noundef %.033.lcssa.i, i32 noundef %26)
  %putchar44.i = call i32 @putchar(i32 10)
  br label %28

28:                                               ; preds = %24, %._crit_edge.i
  %29 = load i8, ptr getelementptr inbounds (%struct.BuildTarget, ptr @active_target, i64 0, i32 37), align 2
  %30 = trunc i8 %29 to i1
  br i1 %30, label %31, label %33

31:                                               ; preds = %28
  %32 = call i32 @puts(ptr noundef nonnull dereferenceable(1) %.033.lcssa.i)
  br label %33

33:                                               ; preds = %31, %28
  %34 = load i32, ptr getelementptr inbounds (%struct.PlatformTarget, ptr @platform_target, i64 0, i32 8), align 8
  switch i32 %34, label %61 [
    i32 1, label %35
    i32 3, label %40
    i32 4, label %47
    i32 5, label %54
  ]

35:                                               ; preds = %33
  %36 = load ptr, ptr %4, align 8
  %.not48.i = icmp eq ptr %36, null
  br i1 %.not48.i, label %62, label %37

37:                                               ; preds = %35
  %38 = getelementptr inbounds i8, ptr %36, i64 -8
  %39 = load i32, ptr %38, align 4
  br label %62

40:                                               ; preds = %33
  %41 = load ptr, ptr %4, align 8
  %.not47.i = icmp eq ptr %41, null
  br i1 %.not47.i, label %45, label %42

42:                                               ; preds = %40
  %43 = getelementptr inbounds i8, ptr %41, i64 -8
  %44 = load i32, ptr %43, align 4
  br label %45

45:                                               ; preds = %42, %40
  %.036.i = phi i32 [ %44, %42 ], [ 0, %40 ]
  %46 = call zeroext i1 @llvm_link_elf(ptr noundef %41, i32 noundef %.036.i, ptr noundef nonnull %5) #11
  br i1 %46, label %66, label %64

47:                                               ; preds = %33
  %48 = load ptr, ptr %4, align 8
  %.not46.i = icmp eq ptr %48, null
  br i1 %.not46.i, label %52, label %49

49:                                               ; preds = %47
  %50 = getelementptr inbounds i8, ptr %48, i64 -8
  %51 = load i32, ptr %50, align 4
  br label %52

52:                                               ; preds = %49, %47
  %.037.i = phi i32 [ %51, %49 ], [ 0, %47 ]
  %53 = call zeroext i1 @llvm_link_macho(ptr noundef %48, i32 noundef %.037.i, ptr noundef nonnull %5) #11
  br i1 %53, label %66, label %64

54:                                               ; preds = %33
  %55 = load ptr, ptr %4, align 8
  %.not45.i = icmp eq ptr %55, null
  br i1 %.not45.i, label %59, label %56

56:                                               ; preds = %54
  %57 = getelementptr inbounds i8, ptr %55, i64 -8
  %58 = load i32, ptr %57, align 4
  br label %59

59:                                               ; preds = %56, %54
  %.038.i = phi i32 [ %58, %56 ], [ 0, %54 ]
  %60 = call zeroext i1 @llvm_link_wasm(ptr noundef %55, i32 noundef %.038.i, ptr noundef nonnull %5) #11
  br i1 %60, label %66, label %64

61:                                               ; preds = %33
  call void (ptr, ...) @error_exit(ptr noundef nonnull @.str, ptr noundef nonnull @.str.1, ptr noundef nonnull @__func__.link_exe, ptr noundef nonnull @.str.2, i32 noundef 651) #12
  unreachable

62:                                               ; preds = %37, %35
  %.035.i = phi i32 [ %39, %37 ], [ 0, %35 ]
  %63 = call zeroext i1 @llvm_link_coff(ptr noundef %36, i32 noundef %.035.i, ptr noundef nonnull %5) #11
  br i1 %63, label %66, label %64

64:                                               ; preds = %62, %59, %52, %45
  %65 = load ptr, ptr %5, align 8
  call void (ptr, ...) @error_exit(ptr noundef nonnull @.str.141, ptr noundef %65) #12
  unreachable

66:                                               ; preds = %62, %59, %52, %45
  %67 = load i8, ptr @debug_log, align 1
  %68 = trunc i8 %67 to i1
  br i1 %68, label %69, label %link_exe.exit

69:                                               ; preds = %66
  %70 = call i32 (ptr, ...) @printf(ptr noundef nonnull dereferenceable(1) @.str.3)
  %71 = call i32 (ptr, ...) @printf(ptr noundef nonnull dereferenceable(1) @.str.27)
  %putchar49.i = call i32 @putchar(i32 10)
  br label %link_exe.exit

link_exe.exit:                                    ; preds = %66, %69
  call void @llvm.lifetime.end.p0(i64 8, ptr nonnull %4)
  call void @llvm.lifetime.end.p0(i64 8, ptr nonnull %5)
  ret i1 true
}